Archive member included to satisfy reference by file (symbol)

/usr/bin/../lib/gcc/arm-none-eabi/7.3.1/../../../../arm-none-eabi/lib/thumb/v7e-m/libg_nano.a(lib_a-memcpy-stub.o)
                              build/robohatmm151/flash_samd51.o (memcpy)
/usr/bin/../lib/gcc/arm-none-eabi/7.3.1/../../../../arm-none-eabi/lib/thumb/v7e-m/libg_nano.a(lib_a-memset.o)
                              build/robohatmm151/cdc_enumerate.o (memset)
/usr/bin/../lib/gcc/arm-none-eabi/7.3.1/../../../../arm-none-eabi/lib/thumb/v7e-m/libg_nano.a(lib_a-strlen.o)
                              build/robohatmm151/cdc_enumerate.o (strlen)

Allocating common symbols
Common symbol       size              file

b_sharp_received    0x1               build/robohatmm151/usart_sam_ba.o
block_erased        0x40              build/robohatmm151/flash_samd51.o
timerHigh           0x4               build/robohatmm151/utils.o
j                   0x1               build/robohatmm151/sam_ba_monitor.o
idx_rx_write        0x1               build/robohatmm151/usart_sam_ba.o
size_of_data        0x2               build/robohatmm151/usart_sam_ba.o
ctrlOutCache        0x44              build/robohatmm151/cdc_enumerate.o
length              0x4               build/robohatmm151/sam_ba_monitor.o
ptr                 0x4               build/robohatmm151/sam_ba_monitor.o
command             0x1               build/robohatmm151/sam_ba_monitor.o
resetHorizon        0x4               build/robohatmm151/utils.o
idx_tx_read         0x1               build/robohatmm151/usart_sam_ba.o
i                   0x4               build/robohatmm151/sam_ba_monitor.o
buffer_tx_usart     0x80              build/robohatmm151/usart_sam_ba.o
error_timeout       0x1               build/robohatmm151/usart_sam_ba.o
usb_endpoint_table  0x100             build/robohatmm151/cdc_enumerate.o
data                0x41              build/robohatmm151/sam_ba_monitor.o
mode_of_transfer    0x1               build/robohatmm151/usart_sam_ba.o
ptr_data            0x4               build/robohatmm151/sam_ba_monitor.o
idx_rx_read         0x1               build/robohatmm151/usart_sam_ba.o
sp                  0x4               build/robohatmm151/sam_ba_monitor.o
current_number      0x4               build/robohatmm151/sam_ba_monitor.o
idx_tx_write        0x1               build/robohatmm151/usart_sam_ba.o
row_same            0x800             build/robohatmm151/flash_samd51.o
endpointCache       0x220             build/robohatmm151/cdc_enumerate.o
u32tmp              0x4               build/robohatmm151/sam_ba_monitor.o
buffer_rx_usart     0x80              build/robohatmm151/usart_sam_ba.o

Discarded input sections

 .text          0x0000000000000000        0x0 build/robohatmm151/flash_samd51.o
 .data          0x0000000000000000        0x0 build/robohatmm151/flash_samd51.o
 .bss           0x0000000000000000        0x0 build/robohatmm151/flash_samd51.o
 .text.flash_erase_block
                0x0000000000000000       0x20 build/robohatmm151/flash_samd51.o
 .text          0x0000000000000000        0x0 build/robohatmm151/init_samd51.o
 .data          0x0000000000000000        0x0 build/robohatmm151/init_samd51.o
 .bss           0x0000000000000000        0x0 build/robohatmm151/init_samd51.o
 .text          0x0000000000000000        0x0 build/robohatmm151/startup_samd51.o
 .data          0x0000000000000000        0x0 build/robohatmm151/startup_samd51.o
 .bss           0x0000000000000000        0x0 build/robohatmm151/startup_samd51.o
 .text          0x0000000000000000        0x0 build/robohatmm151/usart_sam_ba.o
 .data          0x0000000000000000        0x0 build/robohatmm151/usart_sam_ba.o
 .bss           0x0000000000000000        0x0 build/robohatmm151/usart_sam_ba.o
 .text.usart_open
                0x0000000000000000       0xb8 build/robohatmm151/usart_sam_ba.o
 .text.usart_close
                0x0000000000000000        0xc build/robohatmm151/usart_sam_ba.o
 .text.usart_putc
                0x0000000000000000       0x14 build/robohatmm151/usart_sam_ba.o
 .text.usart_getc
                0x0000000000000000       0x18 build/robohatmm151/usart_sam_ba.o
 .text.usart_sharp_received
                0x0000000000000000       0x2c build/robohatmm151/usart_sam_ba.o
 .text.usart_is_rx_ready
                0x0000000000000000       0x10 build/robohatmm151/usart_sam_ba.o
 .text.usart_readc
                0x0000000000000000       0x20 build/robohatmm151/usart_sam_ba.o
 .text.usart_putdata
                0x0000000000000000       0x24 build/robohatmm151/usart_sam_ba.o
 .text.usart_getdata
                0x0000000000000000       0x1c build/robohatmm151/usart_sam_ba.o
 .text.getbytes
                0x0000000000000000       0x80 build/robohatmm151/usart_sam_ba.o
 .text.getPacket
                0x0000000000000000       0x94 build/robohatmm151/usart_sam_ba.o
 .text.usart_putdata_xmd
                0x0000000000000000      0x164 build/robohatmm151/usart_sam_ba.o
 .text.usart_getdata_xmd
                0x0000000000000000       0xc0 build/robohatmm151/usart_sam_ba.o
 COMMON         0x0000000000000000      0x10c build/robohatmm151/usart_sam_ba.o
 .text          0x0000000000000000        0x0 build/robohatmm151/screen.o
 .data          0x0000000000000000        0x0 build/robohatmm151/screen.o
 .bss           0x0000000000000000        0x0 build/robohatmm151/screen.o
 .debug_info    0x0000000000000000      0x919 build/robohatmm151/screen.o
 .debug_abbrev  0x0000000000000000      0x197 build/robohatmm151/screen.o
 .debug_aranges
                0x0000000000000000       0x18 build/robohatmm151/screen.o
 .debug_line    0x0000000000000000      0x131 build/robohatmm151/screen.o
 .debug_str     0x0000000000000000      0x5ec build/robohatmm151/screen.o
 .comment       0x0000000000000000       0x80 build/robohatmm151/screen.o
 .ARM.attributes
                0x0000000000000000       0x33 build/robohatmm151/screen.o
 .text          0x0000000000000000        0x0 build/robohatmm151/images.o
 .data          0x0000000000000000        0x0 build/robohatmm151/images.o
 .bss           0x0000000000000000        0x0 build/robohatmm151/images.o
 .rodata.arrowLogo
                0x0000000000000000       0x39 build/robohatmm151/images.o
 .rodata.fileLogo
                0x0000000000000000       0x4a build/robohatmm151/images.o
 .rodata.font8  0x0000000000000000      0x240 build/robohatmm151/images.o
 .rodata.pendriveLogo
                0x0000000000000000       0x3e build/robohatmm151/images.o
 .debug_info    0x0000000000000000      0x118 build/robohatmm151/images.o
 .debug_abbrev  0x0000000000000000       0x66 build/robohatmm151/images.o
 .debug_aranges
                0x0000000000000000       0x18 build/robohatmm151/images.o
 .debug_line    0x0000000000000000       0x90 build/robohatmm151/images.o
 .debug_str     0x0000000000000000      0x1be build/robohatmm151/images.o
 .comment       0x0000000000000000       0x80 build/robohatmm151/images.o
 .ARM.attributes
                0x0000000000000000       0x33 build/robohatmm151/images.o
 .text          0x0000000000000000        0x0 build/robohatmm151/utils.o
 .data          0x0000000000000000        0x0 build/robohatmm151/utils.o
 .bss           0x0000000000000000        0x0 build/robohatmm151/utils.o
 .text.panic    0x0000000000000000        0x4 build/robohatmm151/utils.o
 .text          0x0000000000000000        0x0 build/robohatmm151/cdc_enumerate.o
 .data          0x0000000000000000        0x0 build/robohatmm151/cdc_enumerate.o
 .bss           0x0000000000000000        0x0 build/robohatmm151/cdc_enumerate.o
 .text.USB_Read
                0x0000000000000000        0x8 build/robohatmm151/cdc_enumerate.o
 .text.AT91F_USB_SendZlp
                0x0000000000000000       0x18 build/robohatmm151/cdc_enumerate.o
 .text.reset_ep
                0x0000000000000000       0x30 build/robohatmm151/cdc_enumerate.o
 .text.stall_ep
                0x0000000000000000       0x24 build/robohatmm151/cdc_enumerate.o
 .text.cdc_is_rx_ready
                0x0000000000000000       0x18 build/robohatmm151/cdc_enumerate.o
 .text          0x0000000000000000        0x0 build/robohatmm151/fat.o
 .data          0x0000000000000000        0x0 build/robohatmm151/fat.o
 .bss           0x0000000000000000        0x0 build/robohatmm151/fat.o
 .text          0x0000000000000000        0x0 build/robohatmm151/main.o
 .data          0x0000000000000000        0x0 build/robohatmm151/main.o
 .bss           0x0000000000000000        0x0 build/robohatmm151/main.o
 .text          0x0000000000000000        0x0 build/robohatmm151/msc.o
 .data          0x0000000000000000        0x0 build/robohatmm151/msc.o
 .bss           0x0000000000000000        0x0 build/robohatmm151/msc.o
 .text.msc_reset
                0x0000000000000000       0x1c build/robohatmm151/msc.o
 .text.udd_ep_set_halt
                0x0000000000000000       0x14 build/robohatmm151/msc.o
 .text.udi_msc_csw_send
                0x0000000000000000       0x10 build/robohatmm151/msc.o
 .bss.mscReset  0x0000000000000000        0x1 build/robohatmm151/msc.o
 .text          0x0000000000000000        0x0 build/robohatmm151/sam_ba_monitor.o
 .data          0x0000000000000000        0x0 build/robohatmm151/sam_ba_monitor.o
 .bss           0x0000000000000000        0x0 build/robohatmm151/sam_ba_monitor.o
 .text.sam_ba_monitor_init
                0x0000000000000000        0x4 build/robohatmm151/sam_ba_monitor.o
 .text.sam_ba_putdata_term
                0x0000000000000000        0x4 build/robohatmm151/sam_ba_monitor.o
 .text.call_applet
                0x0000000000000000       0x24 build/robohatmm151/sam_ba_monitor.o
 .text          0x0000000000000000        0x0 build/robohatmm151/uart_driver.o
 .data          0x0000000000000000        0x0 build/robohatmm151/uart_driver.o
 .bss           0x0000000000000000        0x0 build/robohatmm151/uart_driver.o
 .text.uart_get_sercom_index
                0x0000000000000000       0x34 build/robohatmm151/uart_driver.o
 .text.uart_basic_init
                0x0000000000000000       0x60 build/robohatmm151/uart_driver.o
 .text.uart_disable
                0x0000000000000000       0x14 build/robohatmm151/uart_driver.o
 .text.uart_write_byte
                0x0000000000000000        0xc build/robohatmm151/uart_driver.o
 .text.uart_read_byte
                0x0000000000000000       0x2c build/robohatmm151/uart_driver.o
 .text.uart_write_buffer_polled
                0x0000000000000000       0x18 build/robohatmm151/uart_driver.o
 .text.uart_read_buffer_polled
                0x0000000000000000       0x38 build/robohatmm151/uart_driver.o
 .rodata        0x0000000000000000       0x18 build/robohatmm151/uart_driver.o
 .bss.uart_drv_error_flag
                0x0000000000000000        0x1 build/robohatmm151/uart_driver.o
 .debug_info    0x0000000000000000     0x2a56 build/robohatmm151/uart_driver.o
 .debug_abbrev  0x0000000000000000      0x2ad build/robohatmm151/uart_driver.o
 .debug_loc     0x0000000000000000      0x134 build/robohatmm151/uart_driver.o
 .debug_aranges
                0x0000000000000000       0x50 build/robohatmm151/uart_driver.o
 .debug_ranges  0x0000000000000000       0x40 build/robohatmm151/uart_driver.o
 .debug_line    0x0000000000000000      0x281 build/robohatmm151/uart_driver.o
 .debug_str     0x0000000000000000      0xf35 build/robohatmm151/uart_driver.o
 .comment       0x0000000000000000       0x80 build/robohatmm151/uart_driver.o
 .debug_frame   0x0000000000000000       0xb0 build/robohatmm151/uart_driver.o
 .ARM.attributes
                0x0000000000000000       0x33 build/robohatmm151/uart_driver.o
 .text          0x0000000000000000        0x0 build/robohatmm151/hid.o
 .data          0x0000000000000000        0x0 build/robohatmm151/hid.o
 .bss           0x0000000000000000        0x0 build/robohatmm151/hid.o
 .text.send_hf2_response
                0x0000000000000000       0x10 build/robohatmm151/hid.o
 .text          0x0000000000000000        0x0 /usr/bin/../lib/gcc/arm-none-eabi/7.3.1/../../../../arm-none-eabi/lib/thumb/v7e-m/libg_nano.a(lib_a-memcpy-stub.o)
 .data          0x0000000000000000        0x0 /usr/bin/../lib/gcc/arm-none-eabi/7.3.1/../../../../arm-none-eabi/lib/thumb/v7e-m/libg_nano.a(lib_a-memcpy-stub.o)
 .bss           0x0000000000000000        0x0 /usr/bin/../lib/gcc/arm-none-eabi/7.3.1/../../../../arm-none-eabi/lib/thumb/v7e-m/libg_nano.a(lib_a-memcpy-stub.o)
 .text          0x0000000000000000        0x0 /usr/bin/../lib/gcc/arm-none-eabi/7.3.1/../../../../arm-none-eabi/lib/thumb/v7e-m/libg_nano.a(lib_a-memset.o)
 .data          0x0000000000000000        0x0 /usr/bin/../lib/gcc/arm-none-eabi/7.3.1/../../../../arm-none-eabi/lib/thumb/v7e-m/libg_nano.a(lib_a-memset.o)
 .bss           0x0000000000000000        0x0 /usr/bin/../lib/gcc/arm-none-eabi/7.3.1/../../../../arm-none-eabi/lib/thumb/v7e-m/libg_nano.a(lib_a-memset.o)
 .data          0x0000000000000000        0x0 /usr/bin/../lib/gcc/arm-none-eabi/7.3.1/../../../../arm-none-eabi/lib/thumb/v7e-m/libg_nano.a(lib_a-strlen.o)
 .bss           0x0000000000000000        0x0 /usr/bin/../lib/gcc/arm-none-eabi/7.3.1/../../../../arm-none-eabi/lib/thumb/v7e-m/libg_nano.a(lib_a-strlen.o)

Memory Configuration

Name             Origin             Length             Attributes
rom              0x0000000000000000 0x0000000000004000 xr
ram              0x0000000020000000 0x0000000000030000 xrw
*default*        0x0000000000000000 0xffffffffffffffff

Linker script and memory map

LOAD build/robohatmm151/flash_samd51.o
LOAD build/robohatmm151/init_samd51.o
LOAD build/robohatmm151/startup_samd51.o
LOAD build/robohatmm151/usart_sam_ba.o
LOAD build/robohatmm151/screen.o
LOAD build/robohatmm151/images.o
LOAD build/robohatmm151/utils.o
LOAD build/robohatmm151/cdc_enumerate.o
LOAD build/robohatmm151/fat.o
LOAD build/robohatmm151/main.o
LOAD build/robohatmm151/msc.o
LOAD build/robohatmm151/sam_ba_monitor.o
LOAD build/robohatmm151/uart_driver.o
LOAD build/robohatmm151/hid.o
START GROUP
LOAD /usr/bin/../lib/gcc/arm-none-eabi/7.3.1/thumb/v7e-m/libgcc.a
LOAD /usr/bin/../lib/gcc/arm-none-eabi/7.3.1/../../../../arm-none-eabi/lib/thumb/v7e-m/libg_nano.a
LOAD /usr/bin/../lib/gcc/arm-none-eabi/7.3.1/../../../../arm-none-eabi/lib/thumb/v7e-m/libc_nano.a
END GROUP
START GROUP
LOAD /usr/bin/../lib/gcc/arm-none-eabi/7.3.1/thumb/v7e-m/libgcc.a
LOAD /usr/bin/../lib/gcc/arm-none-eabi/7.3.1/../../../../arm-none-eabi/lib/thumb/v7e-m/libc_nano.a
LOAD /usr/bin/../lib/gcc/arm-none-eabi/7.3.1/../../../../arm-none-eabi/lib/thumb/v7e-m/libnosys.a
END GROUP
START GROUP
LOAD /usr/bin/../lib/gcc/arm-none-eabi/7.3.1/thumb/v7e-m/libgcc.a
LOAD /usr/bin/../lib/gcc/arm-none-eabi/7.3.1/../../../../arm-none-eabi/lib/thumb/v7e-m/libc_nano.a
LOAD /usr/bin/../lib/gcc/arm-none-eabi/7.3.1/../../../../arm-none-eabi/lib/thumb/v7e-m/libnosys.a
END GROUP
                0x000000000000c000                STACK_SIZE = DEFINED (STACK_SIZE)?STACK_SIZE:DEFINED (__stack_size__)?__stack_size__:0xc000

.text           0x0000000000000000     0x21e8
                0x0000000000000000                . = ALIGN (0x4)
                0x0000000000000000                _sfixed = .
 *(.vectors .vectors.*)
 .vectors       0x0000000000000000      0x264 build/robohatmm151/startup_samd51.o
                0x0000000000000000                exception_table
 *(.text .text.* .gnu.linkonce.t.*)
 .text.flash_erase_to_end
                0x0000000000000264       0x34 build/robohatmm151/flash_samd51.o
                0x0000000000000264                flash_erase_to_end
 .text.copy_words
                0x0000000000000298       0x18 build/robohatmm151/flash_samd51.o
                0x0000000000000298                copy_words
 .text.flash_write_words
                0x00000000000002b0       0x6c build/robohatmm151/flash_samd51.o
                0x00000000000002b0                flash_write_words
 .text.flash_write_row
                0x000000000000031c      0x17c build/robohatmm151/flash_samd51.o
                0x000000000000031c                flash_write_row
 .text.system_init
                0x0000000000000498       0xec build/robohatmm151/init_samd51.o
                0x0000000000000498                system_init
 .text.SysTick_Handler
                0x0000000000000584        0x4 build/robohatmm151/init_samd51.o
                0x0000000000000584                SysTick_Handler
 .text.Dummy_Handler
                0x0000000000000588        0x4 build/robohatmm151/startup_samd51.o
                0x0000000000000588                EIC_5_Handler
                0x0000000000000588                SERCOM0_2_Handler
                0x0000000000000588                DebugMon_Handler
                0x0000000000000588                EIC_13_Handler
                0x0000000000000588                EVSYS_0_Handler
                0x0000000000000588                TCC1_3_Handler
                0x0000000000000588                DAC_3_Handler
                0x0000000000000588                TRNG_Handler
                0x0000000000000588                HardFault_Handler
                0x0000000000000588                TC2_Handler
                0x0000000000000588                PDEC_2_Handler
                0x0000000000000588                EIC_4_Handler
                0x0000000000000588                AC_Handler
                0x0000000000000588                SERCOM3_1_Handler
                0x0000000000000588                TCC2_3_Handler
                0x0000000000000588                SERCOM3_2_Handler
                0x0000000000000588                PendSV_Handler
                0x0000000000000588                NMI_Handler
                0x0000000000000588                ADC1_1_Handler
                0x0000000000000588                EVSYS_3_Handler
                0x0000000000000588                PDEC_0_Handler
                0x0000000000000588                QSPI_Handler
                0x0000000000000588                TCC0_0_Handler
                0x0000000000000588                EIC_3_Handler
                0x0000000000000588                TAL_0_Handler
                0x0000000000000588                DAC_2_Handler
                0x0000000000000588                SERCOM0_0_Handler
                0x0000000000000588                RTC_Handler
                0x0000000000000588                UsageFault_Handler
                0x0000000000000588                SERCOM4_0_Handler
                0x0000000000000588                EIC_10_Handler
                0x0000000000000588                SERCOM0_3_Handler
                0x0000000000000588                EIC_11_Handler
                0x0000000000000588                EIC_9_Handler
                0x0000000000000588                OSC32KCTRL_Handler
                0x0000000000000588                TCC2_1_Handler
                0x0000000000000588                SUPC_1_Handler
                0x0000000000000588                TCC0_5_Handler
                0x0000000000000588                TCC0_6_Handler
                0x0000000000000588                EVSYS_1_Handler
                0x0000000000000588                TCC1_4_Handler
                0x0000000000000588                DMAC_0_Handler
                0x0000000000000588                WDT_Handler
                0x0000000000000588                EIC_8_Handler
                0x0000000000000588                EIC_15_Handler
                0x0000000000000588                SERCOM5_0_Handler
                0x0000000000000588                TC1_Handler
                0x0000000000000588                OSCCTRL_4_Handler
                0x0000000000000588                SERCOM4_3_Handler
                0x0000000000000588                EIC_12_Handler
                0x0000000000000588                DMAC_4_Handler
                0x0000000000000588                PAC_Handler
                0x0000000000000588                TCC1_0_Handler
                0x0000000000000588                USB_0_Handler
                0x0000000000000588                OSCCTRL_0_Handler
                0x0000000000000588                EIC_0_Handler
                0x0000000000000588                OSCCTRL_3_Handler
                0x0000000000000588                SERCOM4_1_Handler
                0x0000000000000588                TC3_Handler
                0x0000000000000588                Dummy_Handler
                0x0000000000000588                TCC2_2_Handler
                0x0000000000000588                SERCOM5_1_Handler
                0x0000000000000588                TCC1_1_Handler
                0x0000000000000588                DMAC_2_Handler
                0x0000000000000588                ADC0_0_Handler
                0x0000000000000588                SERCOM0_1_Handler
                0x0000000000000588                OSCCTRL_2_Handler
                0x0000000000000588                ADC1_0_Handler
                0x0000000000000588                TCC1_2_Handler
                0x0000000000000588                USB_1_Handler
                0x0000000000000588                PM_Handler
                0x0000000000000588                SERCOM2_3_Handler
                0x0000000000000588                DAC_4_Handler
                0x0000000000000588                TCC0_2_Handler
                0x0000000000000588                DMAC_1_Handler
                0x0000000000000588                USB_3_Handler
                0x0000000000000588                TCC2_0_Handler
                0x0000000000000588                PDEC_1_Handler
                0x0000000000000588                MemManage_Handler
                0x0000000000000588                SERCOM5_3_Handler
                0x0000000000000588                USB_2_Handler
                0x0000000000000588                SVC_Handler
                0x0000000000000588                SDHC0_Handler
                0x0000000000000588                SERCOM1_1_Handler
                0x0000000000000588                EIC_2_Handler
                0x0000000000000588                PCC_Handler
                0x0000000000000588                DAC_0_Handler
                0x0000000000000588                TCC0_1_Handler
                0x0000000000000588                SERCOM1_3_Handler
                0x0000000000000588                EIC_6_Handler
                0x0000000000000588                OSCCTRL_1_Handler
                0x0000000000000588                SERCOM1_0_Handler
                0x0000000000000588                PUKCC_Handler
                0x0000000000000588                SERCOM2_1_Handler
                0x0000000000000588                SERCOM1_2_Handler
                0x0000000000000588                SERCOM3_0_Handler
                0x0000000000000588                EIC_1_Handler
                0x0000000000000588                SERCOM4_2_Handler
                0x0000000000000588                EVSYS_4_Handler
                0x0000000000000588                EIC_7_Handler
                0x0000000000000588                NVMCTRL_1_Handler
                0x0000000000000588                SERCOM5_2_Handler
                0x0000000000000588                SERCOM3_3_Handler
                0x0000000000000588                ADC0_1_Handler
                0x0000000000000588                SERCOM2_2_Handler
                0x0000000000000588                EIC_14_Handler
                0x0000000000000588                DAC_1_Handler
                0x0000000000000588                NVMCTRL_0_Handler
                0x0000000000000588                TAL_1_Handler
                0x0000000000000588                MCLK_Handler
                0x0000000000000588                EVSYS_2_Handler
                0x0000000000000588                SUPC_0_Handler
                0x0000000000000588                BusFault_Handler
                0x0000000000000588                FREQM_Handler
                0x0000000000000588                TC0_Handler
                0x0000000000000588                TCC0_3_Handler
                0x0000000000000588                DMAC_3_Handler
                0x0000000000000588                TCC0_4_Handler
                0x0000000000000588                RAMECC_Handler
                0x0000000000000588                SERCOM2_0_Handler
                0x0000000000000588                AES_Handler
                0x0000000000000588                ICM_Handler
 .text.Reset_Handler
                0x000000000000058c       0x74 build/robohatmm151/startup_samd51.o
                0x000000000000058c                Reset_Handler
 .text.add_crc  0x0000000000000600       0x58 build/robohatmm151/usart_sam_ba.o
                0x0000000000000600                add_crc
 .text.NVIC_SystemReset
                0x0000000000000658       0x20 build/robohatmm151/utils.o
 .text.delay    0x0000000000000678       0x14 build/robohatmm151/utils.o
                0x0000000000000678                delay
 .text.writeNum
                0x000000000000068c       0x40 build/robohatmm151/utils.o
                0x000000000000068c                writeNum
 .text.resetIntoApp
                0x00000000000006cc       0x14 build/robohatmm151/utils.o
                0x00000000000006cc                resetIntoApp
 .text.timerTick
                0x00000000000006e0       0x3c build/robohatmm151/utils.o
                0x00000000000006e0                timerTick
 .text.resetIntoBootloader
                0x000000000000071c       0x14 build/robohatmm151/utils.o
                0x000000000000071c                resetIntoBootloader
 .text.led_tick
                0x0000000000000730       0x88 build/robohatmm151/utils.o
                0x0000000000000730                led_tick
 .text.led_signal
                0x00000000000007b8       0x28 build/robohatmm151/utils.o
                0x00000000000007b8                led_signal
 .text.led_init
                0x00000000000007e0       0x10 build/robohatmm151/utils.o
                0x00000000000007e0                led_init
 .text.RGBLED_set_color
                0x00000000000007f0        0x4 build/robohatmm151/utils.o
                0x00000000000007f0                RGBLED_set_color
 .text.AT91F_InitUSB
                0x00000000000007f4      0x108 build/robohatmm151/cdc_enumerate.o
                0x00000000000007f4                AT91F_InitUSB
 .text.USB_ReadCore
                0x00000000000008fc       0xe4 build/robohatmm151/cdc_enumerate.o
                0x00000000000008fc                USB_ReadCore
 .text.USB_ReadBlocking
                0x00000000000009e0       0x24 build/robohatmm151/cdc_enumerate.o
                0x00000000000009e0                USB_ReadBlocking
 .text.USB_WriteCore
                0x0000000000000a04       0x88 build/robohatmm151/cdc_enumerate.o
                0x0000000000000a04                USB_WriteCore
 .text.USB_Write
                0x0000000000000a8c        0x8 build/robohatmm151/cdc_enumerate.o
                0x0000000000000a8c                USB_Write
 .text.USB_Ok   0x0000000000000a94      0x570 build/robohatmm151/cdc_enumerate.o
                0x0000000000000a94                USB_Ok
 .text.usb_init
                0x0000000000001004       0x20 build/robohatmm151/cdc_enumerate.o
                0x0000000000001004                usb_init
 .text.cdc_write_buf
                0x0000000000001024       0x10 build/robohatmm151/cdc_enumerate.o
                0x0000000000001024                cdc_write_buf
 .text.cdc_write_buf_xmd
                0x0000000000001034        0x4 build/robohatmm151/cdc_enumerate.o
                0x0000000000001034                cdc_write_buf_xmd
 .text.cdc_read_buf
                0x0000000000001038       0x20 build/robohatmm151/cdc_enumerate.o
                0x0000000000001038                cdc_read_buf
 .text.cdc_read_buf_xmd
                0x0000000000001058       0x2c build/robohatmm151/cdc_enumerate.o
                0x0000000000001058                cdc_read_buf_xmd
 .text.padded_memcpy
                0x0000000000001084       0x2c build/robohatmm151/fat.o
                0x0000000000001084                padded_memcpy
 .text.read_block
                0x00000000000010b0      0x1d4 build/robohatmm151/fat.o
                0x00000000000010b0                read_block
 .text.write_block
                0x0000000000001284       0xfc build/robohatmm151/fat.o
                0x0000000000001284                write_block
 .text.startup.main
                0x0000000000001380      0x124 build/robohatmm151/main.o
                0x0000000000001380                main
 .text.udi_msc_spc_testunitready
                0x00000000000014a4       0x3c build/robohatmm151/msc.o
 .text.handover_flash
                0x00000000000014e0       0x34 build/robohatmm151/msc.o
 .text.udi_msc_sbc_trans
                0x0000000000001514       0xf0 build/robohatmm151/msc.o
 .text.udi_msc_sense_fail.constprop.2
                0x0000000000001604       0x30 build/robohatmm151/msc.o
 .text.udi_msc_data_send
                0x0000000000001634       0x6c build/robohatmm151/msc.o
 .text.udi_msc_spc_mode_sense
                0x00000000000016a0       0x74 build/robohatmm151/msc.o
 .text.try_read_cbw
                0x0000000000001714       0x28 build/robohatmm151/msc.o
                0x0000000000001714                try_read_cbw
 .text.handover
                0x000000000000173c      0x100 build/robohatmm151/msc.o
 .text.process_msc
                0x000000000000183c      0x180 build/robohatmm151/msc.o
                0x000000000000183c                process_msc
 .text.handoverPrep
                0x00000000000019bc       0x20 build/robohatmm151/msc.o
                0x00000000000019bc                handoverPrep
 .text.put_uint32
                0x00000000000019dc       0x1c build/robohatmm151/sam_ba_monitor.o
                0x00000000000019dc                put_uint32
 .text.sam_ba_monitor_run
                0x00000000000019f8      0x324 build/robohatmm151/sam_ba_monitor.o
                0x00000000000019f8                sam_ba_monitor_run
 .text.recv_hf2
                0x0000000000001d1c       0x50 build/robohatmm151/hid.o
                0x0000000000001d1c                recv_hf2
 .text.send_hf2
                0x0000000000001d6c       0xa4 build/robohatmm151/hid.o
                0x0000000000001d6c                send_hf2
 .text.process_core
                0x0000000000001e10      0x148 build/robohatmm151/hid.o
                0x0000000000001e10                process_core
 .text.process_hid
                0x0000000000001f58       0x2c build/robohatmm151/hid.o
                0x0000000000001f58                process_hid
 .text.hidHandoverLoop
                0x0000000000001f84       0x24 build/robohatmm151/hid.o
                0x0000000000001f84                hidHandoverLoop
 .text.memcpy   0x0000000000001fa8       0x16 /usr/bin/../lib/gcc/arm-none-eabi/7.3.1/../../../../arm-none-eabi/lib/thumb/v7e-m/libg_nano.a(lib_a-memcpy-stub.o)
                0x0000000000001fa8                memcpy
 .text.memset   0x0000000000001fbe       0x10 /usr/bin/../lib/gcc/arm-none-eabi/7.3.1/../../../../arm-none-eabi/lib/thumb/v7e-m/libg_nano.a(lib_a-memset.o)
                0x0000000000001fbe                memset
 .text          0x0000000000001fce       0x10 /usr/bin/../lib/gcc/arm-none-eabi/7.3.1/../../../../arm-none-eabi/lib/thumb/v7e-m/libg_nano.a(lib_a-strlen.o)
                0x0000000000001fce                strlen
 *(.glue_7t)
 .glue_7t       0x0000000000001fde        0x0 linker stubs
 *(.glue_7)
 .glue_7        0x0000000000001fde        0x0 linker stubs
 *(.rodata .rodata* .gnu.linkonce.r.*)
 *fill*         0x0000000000001fde        0x2 
 .rodata        0x0000000000001fe0       0x10 build/robohatmm151/cdc_enumerate.o
 .rodata.devDescriptor
                0x0000000000001ff0       0x12 build/robohatmm151/cdc_enumerate.o
                0x0000000000001ff0                devDescriptor
 *fill*         0x0000000000002002        0x2 
 .rodata.hidDescriptor
                0x0000000000002004       0x21 build/robohatmm151/cdc_enumerate.o
                0x0000000000002004                hidDescriptor
 *fill*         0x0000000000002025        0x3 
 .rodata.str1.4
                0x0000000000002028       0x21 build/robohatmm151/cdc_enumerate.o
 *fill*         0x0000000000002049        0x3 
 .rodata.string_descriptors
                0x000000000000204c       0x10 build/robohatmm151/cdc_enumerate.o
 .rodata.BootBlock
                0x000000000000205c       0x3e build/robohatmm151/fat.o
 *fill*         0x000000000000209a        0x2 
 .rodata.indexFile
                0x000000000000209c       0x6e build/robohatmm151/fat.o
                0x000000000000209c                indexFile
 *fill*         0x000000000000210a        0x2 
 .rodata.info   0x000000000000210c       0x30 build/robohatmm151/fat.o
 .rodata.infoUf2File
                0x000000000000213c       0x60 build/robohatmm151/fat.o
                0x000000000000213c                infoUf2File
 .rodata        0x000000000000219c        0xc build/robohatmm151/msc.o
 .rodata.process_msc.str1.4
                0x00000000000021a8        0xd build/robohatmm151/msc.o
 .rodata.fullVersion
                0x00000000000021a8       0x2a build/robohatmm151/sam_ba_monitor.o
 *fill*         0x00000000000021d2        0x2 
 .rodata.sam_ba_monitor_run.str1.4
                0x00000000000021d4       0x14 build/robohatmm151/sam_ba_monitor.o
 *(.ARM.extab* .gnu.linkonce.armextab.*)
                0x00000000000021e8                . = ALIGN (0x4)
 *(.init)
                0x00000000000021e8                . = ALIGN (0x4)
                0x00000000000021e8                __preinit_array_start = .
 *(.preinit_array)
                0x00000000000021e8                __preinit_array_end = .
                0x00000000000021e8                . = ALIGN (0x4)
                0x00000000000021e8                __init_array_start = .
 *(SORT_BY_NAME(.init_array.*))
 *(.init_array)
                0x00000000000021e8                __init_array_end = .
                0x00000000000021e8                . = ALIGN (0x4)
 *crtbegin.o(.ctors)
 *(EXCLUDE_FILE(*crtend.o) .ctors)
 *(SORT_BY_NAME(.ctors.*))
 *crtend.o(.ctors)
                0x00000000000021e8                . = ALIGN (0x4)
                0x00000000000021e8                _efixed = .
                [!provide]                        PROVIDE (__exidx_start = .)

.vfp11_veneer   0x00000000000021e8        0x0
 .vfp11_veneer  0x00000000000021e8        0x0 linker stubs

.v4_bx          0x00000000000021e8        0x0
 .v4_bx         0x00000000000021e8        0x0 linker stubs

.iplt           0x00000000000021e8        0x0
 .iplt          0x00000000000021e8        0x0 build/robohatmm151/flash_samd51.o

.igot.plt       0x00000000000021e8        0x0
 .igot.plt      0x00000000000021e8        0x0 build/robohatmm151/flash_samd51.o

.rel.dyn        0x00000000000021e8        0x0
 .rel.iplt      0x00000000000021e8        0x0 build/robohatmm151/flash_samd51.o

.ARM.exidx
 *(.ARM.exidx* .gnu.linkonce.armexidx.*)
                [!provide]                        PROVIDE (__exidx_end = .)
                0x00000000000021e8                . = ALIGN (0x4)
                0x00000000000021e8                _etext = .

.relocate       0x0000000020000000      0x1d0 load address 0x00000000000021e8
                0x0000000020000000                . = ALIGN (0x4)
                0x0000000020000000                _srelocate = .
 *(.ramfunc .ramfunc.*)
 *(.data .data.*)
 .data.led_tick_step
                0x0000000020000000        0x1 build/robohatmm151/utils.o
                0x0000000020000000                led_tick_step
 .data.limit    0x0000000020000001        0x1 build/robohatmm151/utils.o
 *fill*         0x0000000020000002        0x2 
 .data.bosDescriptor
                0x0000000020000004       0x39 build/robohatmm151/cdc_enumerate.o
 *fill*         0x000000002000003d        0x3 
 .data.cfgDescriptor
                0x0000000020000040       0x99 build/robohatmm151/cdc_enumerate.o
                0x0000000020000040                cfgDescriptor
 *fill*         0x00000000200000d9        0x3 
 .data.hidCfgDescriptor
                0x00000000200000dc        0x9 build/robohatmm151/cdc_enumerate.o
                0x00000000200000dc                hidCfgDescriptor
 *fill*         0x00000000200000e5        0x3 
 .data.line_coding
                0x00000000200000e8        0x8 build/robohatmm151/cdc_enumerate.o
 .data.msOS20Descriptor
                0x00000000200000f0       0xaa build/robohatmm151/cdc_enumerate.o
 *fill*         0x000000002000019a        0x2 
 .data.udi_msc_csw
                0x000000002000019c        0xd build/robohatmm151/msc.o
 *fill*         0x00000000200001a9        0x3 
 .data.udi_msc_inquiry_data.16962
                0x00000000200001ac       0x24 build/robohatmm151/msc.o
                0x00000000200001d0                . = ALIGN (0x4)
                0x00000000200001d0                _erelocate = .

.bss            0x00000000200001d0     0x14cc load address 0x00000000000023b8
                0x00000000200001d0                . = ALIGN (0x4)
                0x00000000200001d0                _sbss = .
                0x00000000200001d0                _szero = .
 *(.bss .bss.*)
 .bss.crcCache  0x00000000200001d0      0x200 build/robohatmm151/usart_sam_ba.o
 .bss.now       0x00000000200003d0        0x4 build/robohatmm151/utils.o
 .bss.signal_end
                0x00000000200003d4        0x4 build/robohatmm151/utils.o
 .bss.timerLow  0x00000000200003d8        0x4 build/robohatmm151/utils.o
 .bss.currentConfiguration
                0x00000000200003dc        0x1 build/robohatmm151/cdc_enumerate.o
 *fill*         0x00000000200003dd        0x3 
 .bss.serial_number
                0x00000000200003e0       0x21 build/robohatmm151/cdc_enumerate.o
 *fill*         0x0000000020000401        0x1 
 .bss.wLength   0x0000000020000402        0x2 build/robohatmm151/cdc_enumerate.o
 .bss.main_b_cdc_enable
                0x0000000020000404        0x1 build/robohatmm151/main.o
 *fill*         0x0000000020000405        0x3 
 .bss.block_buffer
                0x0000000020000408      0x200 build/robohatmm151/msc.o
 .bss.sense.16985
                0x0000000020000608       0x14 build/robohatmm151/msc.o
 .bss.udi_msc_capacity.16995
                0x000000002000061c        0x8 build/robohatmm151/msc.o
 .bss.udi_msc_cbw
                0x0000000020000624       0x1f build/robohatmm151/msc.o
 *fill*         0x0000000020000643        0x1 
 .bss.udi_msc_sense
                0x0000000020000644       0x12 build/robohatmm151/msc.o
 *fill*         0x0000000020000656        0x2 
 .bss.usbWriteState
                0x0000000020000658      0x118 build/robohatmm151/msc.o
 .bss.b_sam_ba_interface_usart
                0x0000000020000770        0x1 build/robohatmm151/sam_ba_monitor.o
                0x0000000020000770                b_sam_ba_interface_usart
 *fill*         0x0000000020000771        0x3 
 .bss.src_buff_addr.16407
                0x0000000020000774        0x4 build/robohatmm151/sam_ba_monitor.o
 .bss.hidbufData
                0x0000000020000778      0x188 build/robohatmm151/hid.o
 .bss.webbufData
                0x0000000020000900      0x188 build/robohatmm151/hid.o
 *(COMMON)
 COMMON         0x0000000020000a88      0x840 build/robohatmm151/flash_samd51.o
                0x0000000020000a88                block_erased
                0x0000000020000ac8                row_same
 COMMON         0x00000000200012c8        0x8 build/robohatmm151/utils.o
                0x00000000200012c8                timerHigh
                0x00000000200012cc                resetHorizon
 COMMON         0x00000000200012d0      0x364 build/robohatmm151/cdc_enumerate.o
                0x00000000200012d0                ctrlOutCache
                0x0000000020001314                usb_endpoint_table
                0x0000000020001414                endpointCache
 COMMON         0x0000000020001634       0x68 build/robohatmm151/sam_ba_monitor.o
                0x0000000020001634                j
                0x0000000020001638                length
                0x000000002000163c                ptr
                0x0000000020001640                command
                0x0000000020001644                i
                0x0000000020001648                data
                0x000000002000168c                ptr_data
                0x0000000020001690                sp
                0x0000000020001694                current_number
                0x0000000020001698                u32tmp
                0x000000002000169c                . = ALIGN (0x4)
                0x000000002000169c                _ebss = .
                0x000000002000169c                _ezero = .

.stack          0x000000002000169c     0xc004 load address 0x0000000000003884
                0x00000000200016a0                . = ALIGN (0x8)
 *fill*         0x000000002000169c        0x4 
                0x00000000200016a0                _sstack = .
                0x000000002000d6a0                . = (. + STACK_SIZE)
 *fill*         0x00000000200016a0     0xc000 
                0x000000002000d6a0                . = ALIGN (0x8)
                0x000000002000d6a0                _estack = .
                0x000000002000d6a0                . = ALIGN (0x4)
                0x000000002000d6a0                _end = .
                0x0000000000003ff0                _binfo_start = 0x3ff0

.binfo          0x0000000000003ff0       0x10
 *(.binfo)
 .binfo         0x0000000000003ff0       0x10 build/robohatmm151/msc.o
                0x0000000000003ff0                binfo
OUTPUT(build/robohatmm151/bootloader-robohatmm151-v3.6.0-2-g4fdf0fe.elf elf32-littlearm)

.debug_info     0x0000000000000000    0x187e8
 .debug_info    0x0000000000000000     0x15c5 build/robohatmm151/flash_samd51.o
 .debug_info    0x00000000000015c5     0x390c build/robohatmm151/init_samd51.o
 .debug_info    0x0000000000004ed1      0xb72 build/robohatmm151/startup_samd51.o
 .debug_info    0x0000000000005a43     0x4699 build/robohatmm151/usart_sam_ba.o
 .debug_info    0x000000000000a0dc     0x1415 build/robohatmm151/utils.o
 .debug_info    0x000000000000b4f1     0x4e26 build/robohatmm151/cdc_enumerate.o
 .debug_info    0x0000000000010317     0x108b build/robohatmm151/fat.o
 .debug_info    0x00000000000113a2     0x14f7 build/robohatmm151/main.o
 .debug_info    0x0000000000012899     0x3bec build/robohatmm151/msc.o
 .debug_info    0x0000000000016485      0xf75 build/robohatmm151/sam_ba_monitor.o
 .debug_info    0x00000000000173fa     0x13ee build/robohatmm151/hid.o

.debug_abbrev   0x0000000000000000     0x289a
 .debug_abbrev  0x0000000000000000      0x350 build/robohatmm151/flash_samd51.o
 .debug_abbrev  0x0000000000000350      0x2f3 build/robohatmm151/init_samd51.o
 .debug_abbrev  0x0000000000000643      0x15c build/robohatmm151/startup_samd51.o
 .debug_abbrev  0x000000000000079f      0x540 build/robohatmm151/usart_sam_ba.o
 .debug_abbrev  0x0000000000000cdf      0x36f build/robohatmm151/utils.o
 .debug_abbrev  0x000000000000104e      0x4da build/robohatmm151/cdc_enumerate.o
 .debug_abbrev  0x0000000000001528      0x35b build/robohatmm151/fat.o
 .debug_abbrev  0x0000000000001883      0x33b build/robohatmm151/main.o
 .debug_abbrev  0x0000000000001bbe      0x575 build/robohatmm151/msc.o
 .debug_abbrev  0x0000000000002133      0x385 build/robohatmm151/sam_ba_monitor.o
 .debug_abbrev  0x00000000000024b8      0x3e2 build/robohatmm151/hid.o

.debug_loc      0x0000000000000000     0x41b9
 .debug_loc     0x0000000000000000      0x55b build/robohatmm151/flash_samd51.o
 .debug_loc     0x000000000000055b       0x3f build/robohatmm151/init_samd51.o
 .debug_loc     0x000000000000059a       0x4b build/robohatmm151/startup_samd51.o
 .debug_loc     0x00000000000005e5      0x870 build/robohatmm151/usart_sam_ba.o
 .debug_loc     0x0000000000000e55      0x166 build/robohatmm151/utils.o
 .debug_loc     0x0000000000000fbb     0x1a68 build/robohatmm151/cdc_enumerate.o
 .debug_loc     0x0000000000002a23      0x6c0 build/robohatmm151/fat.o
 .debug_loc     0x00000000000030e3       0x92 build/robohatmm151/main.o
 .debug_loc     0x0000000000003175      0x580 build/robohatmm151/msc.o
 .debug_loc     0x00000000000036f5      0x24a build/robohatmm151/sam_ba_monitor.o
 .debug_loc     0x000000000000393f      0x87a build/robohatmm151/hid.o

.debug_aranges  0x0000000000000000      0x370
 .debug_aranges
                0x0000000000000000       0x40 build/robohatmm151/flash_samd51.o
 .debug_aranges
                0x0000000000000040       0x28 build/robohatmm151/init_samd51.o
 .debug_aranges
                0x0000000000000068       0x28 build/robohatmm151/startup_samd51.o
 .debug_aranges
                0x0000000000000090       0x88 build/robohatmm151/usart_sam_ba.o
 .debug_aranges
                0x0000000000000118       0x70 build/robohatmm151/utils.o
 .debug_aranges
                0x0000000000000188       0x90 build/robohatmm151/cdc_enumerate.o
 .debug_aranges
                0x0000000000000218       0x30 build/robohatmm151/fat.o
 .debug_aranges
                0x0000000000000248       0x20 build/robohatmm151/main.o
 .debug_aranges
                0x0000000000000268       0x80 build/robohatmm151/msc.o
 .debug_aranges
                0x00000000000002e8       0x40 build/robohatmm151/sam_ba_monitor.o
 .debug_aranges
                0x0000000000000328       0x48 build/robohatmm151/hid.o

.debug_ranges   0x0000000000000000      0xc48
 .debug_ranges  0x0000000000000000       0xf8 build/robohatmm151/flash_samd51.o
 .debug_ranges  0x00000000000000f8       0x50 build/robohatmm151/init_samd51.o
 .debug_ranges  0x0000000000000148       0x18 build/robohatmm151/startup_samd51.o
 .debug_ranges  0x0000000000000160      0x218 build/robohatmm151/usart_sam_ba.o
 .debug_ranges  0x0000000000000378       0x98 build/robohatmm151/utils.o
 .debug_ranges  0x0000000000000410      0x230 build/robohatmm151/cdc_enumerate.o
 .debug_ranges  0x0000000000000640       0xf8 build/robohatmm151/fat.o
 .debug_ranges  0x0000000000000738       0x28 build/robohatmm151/main.o
 .debug_ranges  0x0000000000000760      0x350 build/robohatmm151/msc.o
 .debug_ranges  0x0000000000000ab0       0x78 build/robohatmm151/sam_ba_monitor.o
 .debug_ranges  0x0000000000000b28      0x120 build/robohatmm151/hid.o

.debug_line     0x0000000000000000     0x22e5
 .debug_line    0x0000000000000000      0x290 build/robohatmm151/flash_samd51.o
 .debug_line    0x0000000000000290      0x242 build/robohatmm151/init_samd51.o
 .debug_line    0x00000000000004d2      0x123 build/robohatmm151/startup_samd51.o
 .debug_line    0x00000000000005f5      0x4b2 build/robohatmm151/usart_sam_ba.o
 .debug_line    0x0000000000000aa7      0x2e4 build/robohatmm151/utils.o
 .debug_line    0x0000000000000d8b      0x54c build/robohatmm151/cdc_enumerate.o
 .debug_line    0x00000000000012d7      0x2d7 build/robohatmm151/fat.o
 .debug_line    0x00000000000015ae      0x247 build/robohatmm151/main.o
 .debug_line    0x00000000000017f5      0x532 build/robohatmm151/msc.o
 .debug_line    0x0000000000001d27      0x2ff build/robohatmm151/sam_ba_monitor.o
 .debug_line    0x0000000000002026      0x2bf build/robohatmm151/hid.o

.debug_str      0x0000000000000000     0x4901
 .debug_str     0x0000000000000000      0x8b3 build/robohatmm151/flash_samd51.o
                                        0x9a1 (size before relaxing)
 .debug_str     0x00000000000008b3     0x1042 build/robohatmm151/init_samd51.o
                                       0x193d (size before relaxing)
 .debug_str     0x00000000000018f5      0xafa build/robohatmm151/startup_samd51.o
                                        0xd42 (size before relaxing)
 .debug_str     0x00000000000023ef      0x9d8 build/robohatmm151/usart_sam_ba.o
                                       0x161f (size before relaxing)
 .debug_str     0x0000000000002dc7       0xc3 build/robohatmm151/utils.o
                                        0x91d (size before relaxing)
 .debug_str     0x0000000000002e8a      0xa75 build/robohatmm151/cdc_enumerate.o
                                       0x1790 (size before relaxing)
 .debug_str     0x00000000000038ff      0x29f build/robohatmm151/fat.o
                                        0x920 (size before relaxing)
 .debug_str     0x0000000000003b9e       0xdf build/robohatmm151/main.o
                                        0x989 (size before relaxing)
 .debug_str     0x0000000000003c7d      0x9dc build/robohatmm151/msc.o
                                       0x1906 (size before relaxing)
 .debug_str     0x0000000000004659       0xa9 build/robohatmm151/sam_ba_monitor.o
                                        0x7c9 (size before relaxing)
 .debug_str     0x0000000000004702      0x1ff build/robohatmm151/hid.o
                                        0x90b (size before relaxing)

.comment        0x0000000000000000       0x7f
 .comment       0x0000000000000000       0x7f build/robohatmm151/flash_samd51.o
                                         0x80 (size before relaxing)
 .comment       0x000000000000007f       0x80 build/robohatmm151/init_samd51.o
 .comment       0x000000000000007f       0x80 build/robohatmm151/startup_samd51.o
 .comment       0x000000000000007f       0x80 build/robohatmm151/usart_sam_ba.o
 .comment       0x000000000000007f       0x80 build/robohatmm151/utils.o
 .comment       0x000000000000007f       0x80 build/robohatmm151/cdc_enumerate.o
 .comment       0x000000000000007f       0x80 build/robohatmm151/fat.o
 .comment       0x000000000000007f       0x80 build/robohatmm151/main.o
 .comment       0x000000000000007f       0x80 build/robohatmm151/msc.o
 .comment       0x000000000000007f       0x80 build/robohatmm151/sam_ba_monitor.o
 .comment       0x000000000000007f       0x80 build/robohatmm151/hid.o

.ARM.attributes
                0x0000000000000000       0x31
 .ARM.attributes
                0x0000000000000000       0x33 build/robohatmm151/flash_samd51.o
 .ARM.attributes
                0x0000000000000033       0x33 build/robohatmm151/init_samd51.o
 .ARM.attributes
                0x0000000000000066       0x33 build/robohatmm151/startup_samd51.o
 .ARM.attributes
                0x0000000000000099       0x33 build/robohatmm151/usart_sam_ba.o
 .ARM.attributes
                0x00000000000000cc       0x33 build/robohatmm151/utils.o
 .ARM.attributes
                0x00000000000000ff       0x33 build/robohatmm151/cdc_enumerate.o
 .ARM.attributes
                0x0000000000000132       0x33 build/robohatmm151/fat.o
 .ARM.attributes
                0x0000000000000165       0x33 build/robohatmm151/main.o
 .ARM.attributes
                0x0000000000000198       0x33 build/robohatmm151/msc.o
 .ARM.attributes
                0x00000000000001cb       0x33 build/robohatmm151/sam_ba_monitor.o
 .ARM.attributes
                0x00000000000001fe       0x33 build/robohatmm151/hid.o
 .ARM.attributes
                0x0000000000000231       0x2e /usr/bin/../lib/gcc/arm-none-eabi/7.3.1/../../../../arm-none-eabi/lib/thumb/v7e-m/libg_nano.a(lib_a-memcpy-stub.o)
 .ARM.attributes
                0x000000000000025f       0x2e /usr/bin/../lib/gcc/arm-none-eabi/7.3.1/../../../../arm-none-eabi/lib/thumb/v7e-m/libg_nano.a(lib_a-memset.o)
 .ARM.attributes
                0x000000000000028d       0x17 /usr/bin/../lib/gcc/arm-none-eabi/7.3.1/../../../../arm-none-eabi/lib/thumb/v7e-m/libg_nano.a(lib_a-strlen.o)

.debug_frame    0x0000000000000000      0xa34
 .debug_frame   0x0000000000000000       0xac build/robohatmm151/flash_samd51.o
 .debug_frame   0x00000000000000ac       0x40 build/robohatmm151/init_samd51.o
 .debug_frame   0x00000000000000ec       0x38 build/robohatmm151/startup_samd51.o
 .debug_frame   0x0000000000000124      0x1b4 build/robohatmm151/usart_sam_ba.o
 .debug_frame   0x00000000000002d8      0x124 build/robohatmm151/utils.o
 .debug_frame   0x00000000000003fc      0x1d0 build/robohatmm151/cdc_enumerate.o
 .debug_frame   0x00000000000005cc       0x98 build/robohatmm151/fat.o
 .debug_frame   0x0000000000000664       0x34 build/robohatmm151/main.o
 .debug_frame   0x0000000000000698      0x1b4 build/robohatmm151/msc.o
 .debug_frame   0x000000000000084c       0x98 build/robohatmm151/sam_ba_monitor.o
 .debug_frame   0x00000000000008e4      0x108 build/robohatmm151/hid.o
 .debug_frame   0x00000000000009ec       0x28 /usr/bin/../lib/gcc/arm-none-eabi/7.3.1/../../../../arm-none-eabi/lib/thumb/v7e-m/libg_nano.a(lib_a-memcpy-stub.o)
 .debug_frame   0x0000000000000a14       0x20 /usr/bin/../lib/gcc/arm-none-eabi/7.3.1/../../../../arm-none-eabi/lib/thumb/v7e-m/libg_nano.a(lib_a-memset.o)

Cross Reference Table

Symbol                                            File
AC_Handler                                        build/robohatmm151/startup_samd51.o
ADC0_0_Handler                                    build/robohatmm151/startup_samd51.o
ADC0_1_Handler                                    build/robohatmm151/startup_samd51.o
ADC1_0_Handler                                    build/robohatmm151/startup_samd51.o
ADC1_1_Handler                                    build/robohatmm151/startup_samd51.o
AES_Handler                                       build/robohatmm151/startup_samd51.o
AT91F_InitUSB                                     build/robohatmm151/cdc_enumerate.o
AT91F_USB_SendZlp                                 build/robohatmm151/cdc_enumerate.o
BusFault_Handler                                  build/robohatmm151/startup_samd51.o
DAC_0_Handler                                     build/robohatmm151/startup_samd51.o
DAC_1_Handler                                     build/robohatmm151/startup_samd51.o
DAC_2_Handler                                     build/robohatmm151/startup_samd51.o
DAC_3_Handler                                     build/robohatmm151/startup_samd51.o
DAC_4_Handler                                     build/robohatmm151/startup_samd51.o
DMAC_0_Handler                                    build/robohatmm151/startup_samd51.o
DMAC_1_Handler                                    build/robohatmm151/startup_samd51.o
DMAC_2_Handler                                    build/robohatmm151/startup_samd51.o
DMAC_3_Handler                                    build/robohatmm151/startup_samd51.o
DMAC_4_Handler                                    build/robohatmm151/startup_samd51.o
DebugMon_Handler                                  build/robohatmm151/startup_samd51.o
Dummy_Handler                                     build/robohatmm151/startup_samd51.o
EIC_0_Handler                                     build/robohatmm151/startup_samd51.o
EIC_10_Handler                                    build/robohatmm151/startup_samd51.o
EIC_11_Handler                                    build/robohatmm151/startup_samd51.o
EIC_12_Handler                                    build/robohatmm151/startup_samd51.o
EIC_13_Handler                                    build/robohatmm151/startup_samd51.o
EIC_14_Handler                                    build/robohatmm151/startup_samd51.o
EIC_15_Handler                                    build/robohatmm151/startup_samd51.o
EIC_1_Handler                                     build/robohatmm151/startup_samd51.o
EIC_2_Handler                                     build/robohatmm151/startup_samd51.o
EIC_3_Handler                                     build/robohatmm151/startup_samd51.o
EIC_4_Handler                                     build/robohatmm151/startup_samd51.o
EIC_5_Handler                                     build/robohatmm151/startup_samd51.o
EIC_6_Handler                                     build/robohatmm151/startup_samd51.o
EIC_7_Handler                                     build/robohatmm151/startup_samd51.o
EIC_8_Handler                                     build/robohatmm151/startup_samd51.o
EIC_9_Handler                                     build/robohatmm151/startup_samd51.o
EVSYS_0_Handler                                   build/robohatmm151/startup_samd51.o
EVSYS_1_Handler                                   build/robohatmm151/startup_samd51.o
EVSYS_2_Handler                                   build/robohatmm151/startup_samd51.o
EVSYS_3_Handler                                   build/robohatmm151/startup_samd51.o
EVSYS_4_Handler                                   build/robohatmm151/startup_samd51.o
FREQM_Handler                                     build/robohatmm151/startup_samd51.o
HardFault_Handler                                 build/robohatmm151/startup_samd51.o
ICM_Handler                                       build/robohatmm151/startup_samd51.o
MCLK_Handler                                      build/robohatmm151/startup_samd51.o
MemManage_Handler                                 build/robohatmm151/startup_samd51.o
NMI_Handler                                       build/robohatmm151/startup_samd51.o
NVMCTRL_0_Handler                                 build/robohatmm151/startup_samd51.o
NVMCTRL_1_Handler                                 build/robohatmm151/startup_samd51.o
OSC32KCTRL_Handler                                build/robohatmm151/startup_samd51.o
OSCCTRL_0_Handler                                 build/robohatmm151/startup_samd51.o
OSCCTRL_1_Handler                                 build/robohatmm151/startup_samd51.o
OSCCTRL_2_Handler                                 build/robohatmm151/startup_samd51.o
OSCCTRL_3_Handler                                 build/robohatmm151/startup_samd51.o
OSCCTRL_4_Handler                                 build/robohatmm151/startup_samd51.o
PAC_Handler                                       build/robohatmm151/startup_samd51.o
PCC_Handler                                       build/robohatmm151/startup_samd51.o
PDEC_0_Handler                                    build/robohatmm151/startup_samd51.o
PDEC_1_Handler                                    build/robohatmm151/startup_samd51.o
PDEC_2_Handler                                    build/robohatmm151/startup_samd51.o
PM_Handler                                        build/robohatmm151/startup_samd51.o
PUKCC_Handler                                     build/robohatmm151/startup_samd51.o
PendSV_Handler                                    build/robohatmm151/startup_samd51.o
QSPI_Handler                                      build/robohatmm151/startup_samd51.o
RAMECC_Handler                                    build/robohatmm151/startup_samd51.o
RGBLED_set_color                                  build/robohatmm151/utils.o
                                                  build/robohatmm151/sam_ba_monitor.o
                                                  build/robohatmm151/main.o
RTC_Handler                                       build/robohatmm151/startup_samd51.o
Reset_Handler                                     build/robohatmm151/startup_samd51.o
SDHC0_Handler                                     build/robohatmm151/startup_samd51.o
SERCOM0_0_Handler                                 build/robohatmm151/startup_samd51.o
SERCOM0_1_Handler                                 build/robohatmm151/startup_samd51.o
SERCOM0_2_Handler                                 build/robohatmm151/startup_samd51.o
SERCOM0_3_Handler                                 build/robohatmm151/startup_samd51.o
SERCOM1_0_Handler                                 build/robohatmm151/startup_samd51.o
SERCOM1_1_Handler                                 build/robohatmm151/startup_samd51.o
SERCOM1_2_Handler                                 build/robohatmm151/startup_samd51.o
SERCOM1_3_Handler                                 build/robohatmm151/startup_samd51.o
SERCOM2_0_Handler                                 build/robohatmm151/startup_samd51.o
SERCOM2_1_Handler                                 build/robohatmm151/startup_samd51.o
SERCOM2_2_Handler                                 build/robohatmm151/startup_samd51.o
SERCOM2_3_Handler                                 build/robohatmm151/startup_samd51.o
SERCOM3_0_Handler                                 build/robohatmm151/startup_samd51.o
SERCOM3_1_Handler                                 build/robohatmm151/startup_samd51.o
SERCOM3_2_Handler                                 build/robohatmm151/startup_samd51.o
SERCOM3_3_Handler                                 build/robohatmm151/startup_samd51.o
SERCOM4_0_Handler                                 build/robohatmm151/startup_samd51.o
SERCOM4_1_Handler                                 build/robohatmm151/startup_samd51.o
SERCOM4_2_Handler                                 build/robohatmm151/startup_samd51.o
SERCOM4_3_Handler                                 build/robohatmm151/startup_samd51.o
SERCOM5_0_Handler                                 build/robohatmm151/startup_samd51.o
SERCOM5_1_Handler                                 build/robohatmm151/startup_samd51.o
SERCOM5_2_Handler                                 build/robohatmm151/startup_samd51.o
SERCOM5_3_Handler                                 build/robohatmm151/startup_samd51.o
SUPC_0_Handler                                    build/robohatmm151/startup_samd51.o
SUPC_1_Handler                                    build/robohatmm151/startup_samd51.o
SVC_Handler                                       build/robohatmm151/startup_samd51.o
SysTick_Handler                                   build/robohatmm151/init_samd51.o
TAL_0_Handler                                     build/robohatmm151/startup_samd51.o
TAL_1_Handler                                     build/robohatmm151/startup_samd51.o
TC0_Handler                                       build/robohatmm151/startup_samd51.o
TC1_Handler                                       build/robohatmm151/startup_samd51.o
TC2_Handler                                       build/robohatmm151/startup_samd51.o
TC3_Handler                                       build/robohatmm151/startup_samd51.o
TCC0_0_Handler                                    build/robohatmm151/startup_samd51.o
TCC0_1_Handler                                    build/robohatmm151/startup_samd51.o
TCC0_2_Handler                                    build/robohatmm151/startup_samd51.o
TCC0_3_Handler                                    build/robohatmm151/startup_samd51.o
TCC0_4_Handler                                    build/robohatmm151/startup_samd51.o
TCC0_5_Handler                                    build/robohatmm151/startup_samd51.o
TCC0_6_Handler                                    build/robohatmm151/startup_samd51.o
TCC1_0_Handler                                    build/robohatmm151/startup_samd51.o
TCC1_1_Handler                                    build/robohatmm151/startup_samd51.o
TCC1_2_Handler                                    build/robohatmm151/startup_samd51.o
TCC1_3_Handler                                    build/robohatmm151/startup_samd51.o
TCC1_4_Handler                                    build/robohatmm151/startup_samd51.o
TCC2_0_Handler                                    build/robohatmm151/startup_samd51.o
TCC2_1_Handler                                    build/robohatmm151/startup_samd51.o
TCC2_2_Handler                                    build/robohatmm151/startup_samd51.o
TCC2_3_Handler                                    build/robohatmm151/startup_samd51.o
TRNG_Handler                                      build/robohatmm151/startup_samd51.o
USB_0_Handler                                     build/robohatmm151/startup_samd51.o
USB_1_Handler                                     build/robohatmm151/startup_samd51.o
USB_2_Handler                                     build/robohatmm151/startup_samd51.o
USB_3_Handler                                     build/robohatmm151/startup_samd51.o
USB_Ok                                            build/robohatmm151/cdc_enumerate.o
                                                  build/robohatmm151/msc.o
                                                  build/robohatmm151/main.o
USB_Read                                          build/robohatmm151/cdc_enumerate.o
USB_ReadBlocking                                  build/robohatmm151/cdc_enumerate.o
                                                  build/robohatmm151/msc.o
USB_ReadCore                                      build/robohatmm151/cdc_enumerate.o
                                                  build/robohatmm151/hid.o
                                                  build/robohatmm151/msc.o
USB_Write                                         build/robohatmm151/cdc_enumerate.o
                                                  build/robohatmm151/msc.o
USB_WriteCore                                     build/robohatmm151/cdc_enumerate.o
                                                  build/robohatmm151/hid.o
                                                  build/robohatmm151/msc.o
UsageFault_Handler                                build/robohatmm151/startup_samd51.o
WDT_Handler                                       build/robohatmm151/startup_samd51.o
_erelocate                                        build/robohatmm151/startup_samd51.o
_estack                                           build/robohatmm151/startup_samd51.o
_etext                                            build/robohatmm151/startup_samd51.o
_ezero                                            build/robohatmm151/startup_samd51.o
_sfixed                                           build/robohatmm151/startup_samd51.o
_srelocate                                        build/robohatmm151/startup_samd51.o
_szero                                            build/robohatmm151/startup_samd51.o
add_crc                                           build/robohatmm151/usart_sam_ba.o
                                                  build/robohatmm151/hid.o
                                                  build/robohatmm151/sam_ba_monitor.o
arrowLogo                                         build/robohatmm151/images.o
b_sam_ba_interface_usart                          build/robohatmm151/sam_ba_monitor.o
b_sharp_received                                  build/robohatmm151/usart_sam_ba.o
binfo                                             build/robohatmm151/msc.o
block_erased                                      build/robohatmm151/flash_samd51.o
buffer_rx_usart                                   build/robohatmm151/usart_sam_ba.o
buffer_tx_usart                                   build/robohatmm151/usart_sam_ba.o
call_applet                                       build/robohatmm151/sam_ba_monitor.o
cdc_is_rx_ready                                   build/robohatmm151/cdc_enumerate.o
cdc_read_buf                                      build/robohatmm151/cdc_enumerate.o
                                                  build/robohatmm151/sam_ba_monitor.o
cdc_read_buf_xmd                                  build/robohatmm151/cdc_enumerate.o
                                                  build/robohatmm151/sam_ba_monitor.o
cdc_write_buf                                     build/robohatmm151/cdc_enumerate.o
                                                  build/robohatmm151/sam_ba_monitor.o
cdc_write_buf_xmd                                 build/robohatmm151/cdc_enumerate.o
                                                  build/robohatmm151/sam_ba_monitor.o
cfgDescriptor                                     build/robohatmm151/cdc_enumerate.o
command                                           build/robohatmm151/sam_ba_monitor.o
copy_words                                        build/robohatmm151/flash_samd51.o
                                                  build/robohatmm151/hid.o
ctrlOutCache                                      build/robohatmm151/cdc_enumerate.o
current_number                                    build/robohatmm151/sam_ba_monitor.o
data                                              build/robohatmm151/sam_ba_monitor.o
delay                                             build/robohatmm151/utils.o
                                                  build/robohatmm151/main.o
devDescriptor                                     build/robohatmm151/cdc_enumerate.o
endpointCache                                     build/robohatmm151/cdc_enumerate.o
error_timeout                                     build/robohatmm151/usart_sam_ba.o
exception_table                                   build/robohatmm151/startup_samd51.o
fileLogo                                          build/robohatmm151/images.o
flash_erase_block                                 build/robohatmm151/flash_samd51.o
flash_erase_to_end                                build/robohatmm151/flash_samd51.o
                                                  build/robohatmm151/sam_ba_monitor.o
flash_write_row                                   build/robohatmm151/flash_samd51.o
                                                  build/robohatmm151/hid.o
                                                  build/robohatmm151/fat.o
flash_write_words                                 build/robohatmm151/flash_samd51.o
                                                  build/robohatmm151/sam_ba_monitor.o
font8                                             build/robohatmm151/images.o
getPacket                                         build/robohatmm151/usart_sam_ba.o
handoverPrep                                      build/robohatmm151/msc.o
                                                  build/robohatmm151/hid.o
hidCfgDescriptor                                  build/robohatmm151/cdc_enumerate.o
hidDescriptor                                     build/robohatmm151/cdc_enumerate.o
hidHandoverLoop                                   build/robohatmm151/hid.o
                                                  build/robohatmm151/msc.o
i                                                 build/robohatmm151/sam_ba_monitor.o
idx_rx_read                                       build/robohatmm151/usart_sam_ba.o
idx_rx_write                                      build/robohatmm151/usart_sam_ba.o
idx_tx_read                                       build/robohatmm151/usart_sam_ba.o
idx_tx_write                                      build/robohatmm151/usart_sam_ba.o
indexFile                                         build/robohatmm151/fat.o
infoUf2File                                       build/robohatmm151/fat.o
                                                  build/robohatmm151/hid.o
                                                  build/robohatmm151/msc.o
j                                                 build/robohatmm151/sam_ba_monitor.o
led_init                                          build/robohatmm151/utils.o
                                                  build/robohatmm151/main.o
led_signal                                        build/robohatmm151/utils.o
                                                  build/robohatmm151/sam_ba_monitor.o
                                                  build/robohatmm151/msc.o
led_tick                                          build/robohatmm151/utils.o
                                                  build/robohatmm151/init_samd51.o
led_tick_step                                     build/robohatmm151/utils.o
                                                  build/robohatmm151/main.o
length                                            build/robohatmm151/sam_ba_monitor.o
main                                              build/robohatmm151/main.o
                                                  build/robohatmm151/startup_samd51.o
memcpy                                            /usr/bin/../lib/gcc/arm-none-eabi/7.3.1/../../../../arm-none-eabi/lib/thumb/v7e-m/libg_nano.a(lib_a-memcpy-stub.o)
                                                  build/robohatmm151/hid.o
                                                  build/robohatmm151/sam_ba_monitor.o
                                                  build/robohatmm151/fat.o
                                                  build/robohatmm151/cdc_enumerate.o
                                                  build/robohatmm151/flash_samd51.o
memset                                            /usr/bin/../lib/gcc/arm-none-eabi/7.3.1/../../../../arm-none-eabi/lib/thumb/v7e-m/libg_nano.a(lib_a-memset.o)
                                                  build/robohatmm151/hid.o
                                                  build/robohatmm151/msc.o
                                                  build/robohatmm151/fat.o
                                                  build/robohatmm151/cdc_enumerate.o
mode_of_transfer                                  build/robohatmm151/usart_sam_ba.o
mscReset                                          build/robohatmm151/msc.o
msc_reset                                         build/robohatmm151/msc.o
padded_memcpy                                     build/robohatmm151/fat.o
                                                  build/robohatmm151/msc.o
panic                                             build/robohatmm151/utils.o
pendriveLogo                                      build/robohatmm151/images.o
process_core                                      build/robohatmm151/hid.o
process_hid                                       build/robohatmm151/hid.o
                                                  build/robohatmm151/msc.o
process_msc                                       build/robohatmm151/msc.o
                                                  build/robohatmm151/sam_ba_monitor.o
ptr                                               build/robohatmm151/sam_ba_monitor.o
ptr_data                                          build/robohatmm151/sam_ba_monitor.o
put_uint32                                        build/robohatmm151/sam_ba_monitor.o
read_block                                        build/robohatmm151/fat.o
                                                  build/robohatmm151/msc.o
recv_hf2                                          build/robohatmm151/hid.o
resetHorizon                                      build/robohatmm151/utils.o
                                                  build/robohatmm151/main.o
                                                  build/robohatmm151/fat.o
resetIntoApp                                      build/robohatmm151/utils.o
                                                  build/robohatmm151/hid.o
                                                  build/robohatmm151/msc.o
resetIntoBootloader                               build/robohatmm151/utils.o
                                                  build/robohatmm151/hid.o
                                                  build/robohatmm151/msc.o
reset_ep                                          build/robohatmm151/cdc_enumerate.o
                                                  build/robohatmm151/msc.o
row_same                                          build/robohatmm151/flash_samd51.o
sam_ba_monitor_init                               build/robohatmm151/sam_ba_monitor.o
sam_ba_monitor_run                                build/robohatmm151/sam_ba_monitor.o
                                                  build/robohatmm151/main.o
sam_ba_putdata_term                               build/robohatmm151/sam_ba_monitor.o
send_hf2                                          build/robohatmm151/hid.o
send_hf2_response                                 build/robohatmm151/hid.o
size_of_data                                      build/robohatmm151/usart_sam_ba.o
sp                                                build/robohatmm151/sam_ba_monitor.o
stall_ep                                          build/robohatmm151/cdc_enumerate.o
                                                  build/robohatmm151/msc.o
strlen                                            /usr/bin/../lib/gcc/arm-none-eabi/7.3.1/../../../../arm-none-eabi/lib/thumb/v7e-m/libg_nano.a(lib_a-strlen.o)
                                                  build/robohatmm151/hid.o
                                                  build/robohatmm151/fat.o
                                                  build/robohatmm151/cdc_enumerate.o
system_init                                       build/robohatmm151/init_samd51.o
                                                  build/robohatmm151/main.o
timerHigh                                         build/robohatmm151/utils.o
                                                  build/robohatmm151/main.o
                                                  build/robohatmm151/fat.o
timerTick                                         build/robohatmm151/utils.o
                                                  build/robohatmm151/cdc_enumerate.o
try_read_cbw                                      build/robohatmm151/msc.o
u32tmp                                            build/robohatmm151/sam_ba_monitor.o
uart_basic_init                                   build/robohatmm151/uart_driver.o
                                                  build/robohatmm151/usart_sam_ba.o
uart_disable                                      build/robohatmm151/uart_driver.o
                                                  build/robohatmm151/usart_sam_ba.o
uart_drv_error_flag                               build/robohatmm151/uart_driver.o
uart_get_sercom_index                             build/robohatmm151/uart_driver.o
uart_read_buffer_polled                           build/robohatmm151/uart_driver.o
uart_read_byte                                    build/robohatmm151/uart_driver.o
                                                  build/robohatmm151/usart_sam_ba.o
uart_write_buffer_polled                          build/robohatmm151/uart_driver.o
uart_write_byte                                   build/robohatmm151/uart_driver.o
                                                  build/robohatmm151/usart_sam_ba.o
udd_ep_set_halt                                   build/robohatmm151/msc.o
udi_msc_csw_send                                  build/robohatmm151/msc.o
usart_close                                       build/robohatmm151/usart_sam_ba.o
usart_getc                                        build/robohatmm151/usart_sam_ba.o
usart_getdata                                     build/robohatmm151/usart_sam_ba.o
usart_getdata_xmd                                 build/robohatmm151/usart_sam_ba.o
usart_is_rx_ready                                 build/robohatmm151/usart_sam_ba.o
usart_open                                        build/robohatmm151/usart_sam_ba.o
usart_putc                                        build/robohatmm151/usart_sam_ba.o
usart_putdata                                     build/robohatmm151/usart_sam_ba.o
usart_putdata_xmd                                 build/robohatmm151/usart_sam_ba.o
usart_readc                                       build/robohatmm151/usart_sam_ba.o
usart_sharp_received                              build/robohatmm151/usart_sam_ba.o
usb_endpoint_table                                build/robohatmm151/cdc_enumerate.o
usb_init                                          build/robohatmm151/cdc_enumerate.o
                                                  build/robohatmm151/main.o
writeNum                                          build/robohatmm151/utils.o
                                                  build/robohatmm151/sam_ba_monitor.o
                                                  build/robohatmm151/cdc_enumerate.o
write_block                                       build/robohatmm151/fat.o
                                                  build/robohatmm151/msc.o
